target datalayout = "e-m:e-p270:32:32-p271:32:32-p272:64:64-i64:64-i128:128-f80:128-n8:16:32:64-S128"
target triple = "x86_64-pc-linux-gnu"

%struct.LexState = type { i32, i32, i32, %struct.Token, %struct.Token, ptr, ptr, ptr, ptr, ptr, ptr, ptr, ptr }
%struct.Token = type { i32, %union.SemInfo }
%union.SemInfo = type { double }

; Function Attrs: nounwind uwtable
define hidden void @luaX_next(ptr noundef %0) #0 {
  %2 = alloca ptr, align 8
  store ptr %0, ptr %2, align 8, !tbaa !18
  %3 = load ptr, ptr %2, align 8, !tbaa !18
  %4 = getelementptr inbounds nuw %struct.LexState, ptr %3, i32 0, i32 1
  %5 = load i32, ptr %4, align 4, !tbaa !31
  %6 = load ptr, ptr %2, align 8, !tbaa !18
  %7 = getelementptr inbounds nuw %struct.LexState, ptr %6, i32 0, i32 2
  store i32 %5, ptr %7, align 8, !tbaa !59
  %8 = load ptr, ptr %2, align 8, !tbaa !18
  %9 = getelementptr inbounds nuw %struct.LexState, ptr %8, i32 0, i32 4
  %10 = getelementptr inbounds nuw %struct.Token, ptr %9, i32 0, i32 0
  %11 = load i32, ptr %10, align 8, !tbaa !56
  %12 = icmp ne i32 %11, 288
  br i1 %12, label %13, label %21

13:                                               ; preds = %1
  %14 = load ptr, ptr %2, align 8, !tbaa !18
  %15 = getelementptr inbounds nuw %struct.LexState, ptr %14, i32 0, i32 3
  %16 = load ptr, ptr %2, align 8, !tbaa !18
  %17 = getelementptr inbounds nuw %struct.LexState, ptr %16, i32 0, i32 4
  call void @llvm.memcpy.p0.p0.i64(ptr align 8 %15, ptr align 8 %17, i64 16, i1 false), !tbaa.struct !65
  %18 = load ptr, ptr %2, align 8, !tbaa !18
  %19 = getelementptr inbounds nuw %struct.LexState, ptr %18, i32 0, i32 4
  %20 = getelementptr inbounds nuw %struct.Token, ptr %19, i32 0, i32 0
  store i32 288, ptr %20, align 8, !tbaa !56
  br label %30

21:                                               ; preds = %1
  %22 = load ptr, ptr %2, align 8, !tbaa !18
  %23 = load ptr, ptr %2, align 8, !tbaa !18
  %24 = getelementptr inbounds nuw %struct.LexState, ptr %23, i32 0, i32 3
  %25 = getelementptr inbounds nuw %struct.Token, ptr %24, i32 0, i32 1
  %26 = call i32 @llex(ptr noundef %22, ptr noundef %25)
  %27 = load ptr, ptr %2, align 8, !tbaa !18
  %28 = getelementptr inbounds nuw %struct.LexState, ptr %27, i32 0, i32 3
  %29 = getelementptr inbounds nuw %struct.Token, ptr %28, i32 0, i32 0
  store i32 %26, ptr %29, align 8, !tbaa !29
  br label %30

30:                                               ; preds = %21, %13
  ret void
}