; Function Attrs: nounwind uwtable
define hidden void @luaX_next(ptr noundef initializes((8, 12)) %0) local_unnamed_addr #0 {
  %2 = getelementptr inbounds nuw i8, ptr %0, i64 4
  %3 = load i32, ptr %2, align 4, !tbaa !26
  %4 = getelementptr inbounds nuw i8, ptr %0, i64 8
  store i32 %3, ptr %4, align 8, !tbaa !55
  %5 = getelementptr inbounds nuw i8, ptr %0, i64 32
  %6 = load i32, ptr %5, align 8, !tbaa !52
  %.not = icmp eq i32 %6, 288
  %7 = getelementptr inbounds nuw i8, ptr %0, i64 16
  br i1 %.not, label %9, label %8

8:                                                ; preds = %1
  tail call void @llvm.memcpy.p0.p0.i64(ptr noundef nonnull align 8 dereferenceable(16) %7, ptr noundef nonnull align 8 dereferenceable(16) %5, i64 16, i1 false), !tbaa.struct !57
  store i32 288, ptr %5, align 8, !tbaa !52
  br label %12

9:                                                ; preds = %1
  %10 = getelementptr inbounds nuw i8, ptr %0, i64 24
  %11 = tail call fastcc i32 @llex(ptr noundef nonnull %0, ptr noundef nonnull %10)
  store i32 %11, ptr %7, align 8, !tbaa !24
  br label %12

12:                                               ; preds = %9, %8
  ret void
}